; Function Attrs: nounwind uwtable
define internal fastcc void @CVAckpntDelete(ptr noundef captures(none) %0) unnamed_addr #0 {
  %2 = load ptr, ptr %0, align 8, !tbaa !81
  %3 = icmp eq ptr %2, null
  br i1 %3, label %88, label %4

4:                                                ; preds = %1
  %5 = getelementptr inbounds nuw i8, ptr %2, i64 816
  %6 = load ptr, ptr %5, align 8, !tbaa !82
  store ptr %6, ptr %0, align 8, !tbaa !81
  %7 = getelementptr inbounds nuw i8, ptr %2, i64 480
  %8 = load i32, ptr %7, align 8, !tbaa !84
  %.not71 = icmp slt i32 %8, 0
  br i1 %.not71, label %._crit_edge, label %.lr.ph

.lr.ph:                                           ; preds = %4
  %9 = getelementptr inbounds nuw i8, ptr %2, i64 16
  br label %10

10:                                               ; preds = %.lr.ph, %10
  %indvars.iv = phi i64 [ 0, %.lr.ph ], [ %indvars.iv.next, %10 ]
  %11 = getelementptr inbounds nuw [13 x ptr], ptr %9, i64 0, i64 %indvars.iv
  %12 = load ptr, ptr %11, align 8, !tbaa !68
  tail call void @N_VDestroy(ptr noundef %12) #9
  %indvars.iv.next = add nuw nsw i64 %indvars.iv, 1
  %13 = load i32, ptr %7, align 8, !tbaa !84
  %14 = sext i32 %13 to i64
  %.not.not = icmp slt i64 %indvars.iv, %14
  br i1 %.not.not, label %10, label %._crit_edge

._crit_edge:                                      ; preds = %10, %4
  %15 = getelementptr inbounds nuw i8, ptr %2, i64 456
  %16 = load i32, ptr %15, align 8, !tbaa !85
  %.not56 = icmp eq i32 %16, 0
  br i1 %.not56, label %22, label %17

17:                                               ; preds = %._crit_edge
  %18 = getelementptr inbounds nuw i8, ptr %2, i64 16
  %19 = sext i32 %16 to i64
  %20 = getelementptr inbounds [13 x ptr], ptr %18, i64 0, i64 %19
  %21 = load ptr, ptr %20, align 8, !tbaa !68
  tail call void @N_VDestroy(ptr noundef %21) #9
  br label %22

22:                                               ; preds = %17, %._crit_edge
  %23 = getelementptr inbounds nuw i8, ptr %2, i64 120
  %24 = load i32, ptr %23, align 8, !tbaa !86
  %.not57 = icmp eq i32 %24, 0
  br i1 %.not57, label %41, label %25

25:                                               ; preds = %22
  %26 = load ptr, ptr %5, align 8, !tbaa !82
  %.not58 = icmp eq ptr %26, null
  br i1 %.not58, label %39, label %.preheader70

.preheader70:                                     ; preds = %25
  %27 = load i32, ptr %7, align 8, !tbaa !84
  %.not5973 = icmp slt i32 %27, 0
  br i1 %.not5973, label %._crit_edge76, label %.lr.ph75

.lr.ph75:                                         ; preds = %.preheader70
  %28 = getelementptr inbounds nuw i8, ptr %2, i64 128
  br label %29

29:                                               ; preds = %.lr.ph75, %29
  %indvars.iv86 = phi i64 [ 0, %.lr.ph75 ], [ %indvars.iv.next87, %29 ]
  %30 = getelementptr inbounds nuw [13 x ptr], ptr %28, i64 0, i64 %indvars.iv86
  %31 = load ptr, ptr %30, align 8, !tbaa !68
  tail call void @N_VDestroy(ptr noundef %31) #9
  %indvars.iv.next87 = add nuw nsw i64 %indvars.iv86, 1
  %32 = load i32, ptr %7, align 8, !tbaa !84
  %33 = sext i32 %32 to i64
  %.not59.not = icmp slt i64 %indvars.iv86, %33
  br i1 %.not59.not, label %29, label %._crit_edge76

._crit_edge76:                                    ; preds = %29, %.preheader70
  %34 = load i32, ptr %15, align 8, !tbaa !85
  %.not60 = icmp eq i32 %34, 0
  br i1 %.not60, label %41, label %35

35:                                               ; preds = %._crit_edge76
  %36 = getelementptr inbounds nuw i8, ptr %2, i64 128
  %37 = sext i32 %34 to i64
  %38 = getelementptr inbounds [13 x ptr], ptr %36, i64 0, i64 %37
  br label %.sink.split

39:                                               ; preds = %25
  %40 = getelementptr inbounds nuw i8, ptr %2, i64 128
  br label %.sink.split

.sink.split:                                      ; preds = %35, %39
  %.sink.in = phi ptr [ %40, %39 ], [ %38, %35 ]
  %.sink = load ptr, ptr %.sink.in, align 8, !tbaa !68
  tail call void @N_VDestroy(ptr noundef %.sink) #9
  br label %41

41:                                               ; preds = %.sink.split, %._crit_edge76, %22
  %42 = getelementptr inbounds nuw i8, ptr %2, i64 232
  %43 = load i32, ptr %42, align 8, !tbaa !87
  %.not61 = icmp eq i32 %43, 0
  br i1 %.not61, label %64, label %44

44:                                               ; preds = %41
  %45 = load ptr, ptr %5, align 8, !tbaa !82
  %.not62 = icmp eq ptr %45, null
  br i1 %.not62, label %60, label %.preheader69

.preheader69:                                     ; preds = %44
  %46 = load i32, ptr %7, align 8, !tbaa !84
  %.not6377 = icmp slt i32 %46, 0
  br i1 %.not6377, label %._crit_edge80, label %.lr.ph79

.lr.ph79:                                         ; preds = %.preheader69
  %47 = getelementptr inbounds nuw i8, ptr %2, i64 240
  %48 = getelementptr inbounds nuw i8, ptr %2, i64 236
  br label %49

49:                                               ; preds = %.lr.ph79, %49
  %indvars.iv89 = phi i64 [ 0, %.lr.ph79 ], [ %indvars.iv.next90, %49 ]
  %50 = getelementptr inbounds nuw [13 x ptr], ptr %47, i64 0, i64 %indvars.iv89
  %51 = load ptr, ptr %50, align 8, !tbaa !69
  %52 = load i32, ptr %48, align 4, !tbaa !88
  tail call void @N_VDestroyVectorArray(ptr noundef %51, i32 noundef %52) #9
  %indvars.iv.next90 = add nuw nsw i64 %indvars.iv89, 1
  %53 = load i32, ptr %7, align 8, !tbaa !84
  %54 = sext i32 %53 to i64
  %.not63.not = icmp slt i64 %indvars.iv89, %54
  br i1 %.not63.not, label %49, label %._crit_edge80

._crit_edge80:                                    ; preds = %49, %.preheader69
  %55 = load i32, ptr %15, align 8, !tbaa !85
  %.not64 = icmp eq i32 %55, 0
  br i1 %.not64, label %64, label %56

56:                                               ; preds = %._crit_edge80
  %57 = getelementptr inbounds nuw i8, ptr %2, i64 240
  %58 = sext i32 %55 to i64
  %59 = getelementptr inbounds [13 x ptr], ptr %57, i64 0, i64 %58
  br label %.sink.split95

60:                                               ; preds = %44
  %61 = getelementptr inbounds nuw i8, ptr %2, i64 240
  br label %.sink.split95

.sink.split95:                                    ; preds = %56, %60
  %.sink96.in = phi ptr [ %61, %60 ], [ %59, %56 ]
  %.sink96 = load ptr, ptr %.sink96.in, align 8, !tbaa !69
  %62 = getelementptr inbounds nuw i8, ptr %2, i64 236
  %63 = load i32, ptr %62, align 4, !tbaa !88
  tail call void @N_VDestroyVectorArray(ptr noundef %.sink96, i32 noundef %63) #9
  br label %64

64:                                               ; preds = %.sink.split95, %._crit_edge80, %41
  %65 = getelementptr inbounds nuw i8, ptr %2, i64 344
  %66 = load i32, ptr %65, align 8, !tbaa !89
  %.not65 = icmp eq i32 %66, 0
  br i1 %.not65, label %87, label %67

67:                                               ; preds = %64
  %68 = load ptr, ptr %5, align 8, !tbaa !82
  %.not66 = icmp eq ptr %68, null
  br i1 %.not66, label %83, label %.preheader

.preheader:                                       ; preds = %67
  %69 = load i32, ptr %7, align 8, !tbaa !84
  %.not6781 = icmp slt i32 %69, 0
  br i1 %.not6781, label %._crit_edge84, label %.lr.ph83

.lr.ph83:                                         ; preds = %.preheader
  %70 = getelementptr inbounds nuw i8, ptr %2, i64 352
  %71 = getelementptr inbounds nuw i8, ptr %2, i64 236
  br label %72

72:                                               ; preds = %.lr.ph83, %72
  %indvars.iv92 = phi i64 [ 0, %.lr.ph83 ], [ %indvars.iv.next93, %72 ]
  %73 = getelementptr inbounds nuw [13 x ptr], ptr %70, i64 0, i64 %indvars.iv92
  %74 = load ptr, ptr %73, align 8, !tbaa !69
  %75 = load i32, ptr %71, align 4, !tbaa !88
  tail call void @N_VDestroyVectorArray(ptr noundef %74, i32 noundef %75) #9
  %indvars.iv.next93 = add nuw nsw i64 %indvars.iv92, 1
  %76 = load i32, ptr %7, align 8, !tbaa !84
  %77 = sext i32 %76 to i64
  %.not67.not = icmp slt i64 %indvars.iv92, %77
  br i1 %.not67.not, label %72, label %._crit_edge84

._crit_edge84:                                    ; preds = %72, %.preheader
  %78 = load i32, ptr %15, align 8, !tbaa !85
  %.not68 = icmp eq i32 %78, 0
  br i1 %.not68, label %87, label %79

79:                                               ; preds = %._crit_edge84
  %80 = getelementptr inbounds nuw i8, ptr %2, i64 352
  %81 = sext i32 %78 to i64
  %82 = getelementptr inbounds [13 x ptr], ptr %80, i64 0, i64 %81
  br label %.sink.split99

83:                                               ; preds = %67
  %84 = getelementptr inbounds nuw i8, ptr %2, i64 352
  br label %.sink.split99

.sink.split99:                                    ; preds = %79, %83
  %.sink100.in = phi ptr [ %84, %83 ], [ %82, %79 ]
  %.sink100 = load ptr, ptr %.sink100.in, align 8, !tbaa !69
  %85 = getelementptr inbounds nuw i8, ptr %2, i64 236
  %86 = load i32, ptr %85, align 4, !tbaa !88
  tail call void @N_VDestroyVectorArray(ptr noundef %.sink100, i32 noundef %86) #9
  br label %87

87:                                               ; preds = %.sink.split99, %._crit_edge84, %64
  tail call void @free(ptr noundef nonnull %2) #9
  br label %88

88:                                               ; preds = %1, %87
  ret void
}